; Function Attrs: mustprogress nofree norecurse nosync nounwind willreturn memory(read, argmem: readwrite, inaccessiblemem: none) uwtable
define internal void @_ZN12_GLOBAL__N_126InlineCostFeaturesAnalyzer23onLoadRelativeIntrinsicEv(ptr noundef nonnull align 8 captures(none) dereferenceable(736) %0) unnamed_addr #14 align 2 {
  %2 = load i32, ptr getelementptr inbounds nuw (i8, ptr @_ZL9InstrCost, i64 128), align 8
  %3 = mul nsw i32 %2, 3
  %4 = getelementptr inbounds nuw i8, ptr %0, i64 612
  %5 = load i32, ptr %4, align 4
  %6 = add i32 %5, %3
  store i32 %6, ptr %4, align 4
  ret void
}